Certificate:
    Data:
        Version: 3 (0x2)
        Serial Number: 27 (0x1b)
        Signature Algorithm: sha256WithRSAEncryption
        Issuer: CN=Easy-RSA CA
        Validity
            Not Before: Apr 17 12:35:45 2017 GMT
            Not After : Apr 15 12:35:45 2027 GMT
        Subject: CN=rwc-server-centos
        Subject Public Key Info:
            Public Key Algorithm: rsaEncryption
            RSA Public Key: (2048 bit)
                Modulus (2048 bit):
                    00:bb:4f:3a:b1:18:92:36:5f:dd:56:54:33:df:b1:
                    09:0d:04:3a:82:de:22:4a:d4:62:57:53:50:99:8d:
                    90:ce:c3:36:84:dd:c2:36:21:02:6a:dd:f5:d7:37:
                    04:83:02:20:dd:18:61:29:04:0d:a6:11:b7:ae:e3:
                    49:58:1d:13:3f:10:7d:61:51:f0:f7:6e:dc:55:8f:
                    8a:3f:b2:b3:b7:79:ef:8b:f2:7c:f9:ee:8b:5b:96:
                    3b:8c:8f:fc:10:ae:93:9d:13:15:75:db:8c:79:9e:
                    c4:bc:c7:01:a7:5b:a0:77:45:f0:fc:1d:0a:ff:df:
                    ea:e3:f2:cc:41:71:08:c4:6d:8c:c7:75:c8:cd:0b:
                    54:28:e8:59:f2:9e:fc:56:a0:d2:9f:a0:9b:33:ea:
                    7d:b8:90:12:58:45:7e:db:ea:91:aa:8f:f7:20:93:
                    ff:6b:99:45:a1:aa:ce:de:f4:66:f0:3f:6d:db:36:
                    48:f8:d0:5a:ff:ec:ae:aa:68:44:0c:9a:d9:3d:be:
                    d8:b6:78:4f:e1:fc:87:78:28:a2:f7:f5:e9:e1:d8:
                    90:8e:02:87:a7:a6:55:bb:88:a2:63:15:06:1c:af:
                    04:e5:13:cb:2e:41:3f:92:0d:50:27:8e:16:5d:26:
                    f4:68:72:38:36:63:78:a2:0f:92:91:9c:7b:c4:84:
                    f8:77
                Exponent: 65537 (0x10001)
        X509v3 extensions:
            X509v3 Basic Constraints: 
                CA:FALSE
            X509v3 Subject Key Identifier: 
                04:92:CD:00:C5:E0:C0:82:42:3B:82:F2:86:E6:73:52:52:78:B0:5C
            X509v3 Authority Key Identifier: 
                keyid:D0:9D:E3:FE:44:22:AE:A3:94:EA:7C:1F:F2:EF:E1:FF:A6:53:99:F0
                DirName:/CN=Easy-RSA CA
                serial:B3:1C:01:04:82:EC:F2:E1

            X509v3 Extended Key Usage: 
                TLS Web Server Authentication
            X509v3 Key Usage: 
                Digital Signature, Key Encipherment
            X509v3 Subject Alternative Name: 
                DNS:rwc-server-centos
    Signature Algorithm: sha256WithRSAEncryption
        54:01:12:c4:59:93:76:7e:dc:35:db:ea:8e:bd:87:66:18:65:
        0f:65:5e:7d:10:db:e9:2a:f1:f4:01:5d:d9:08:ce:21:0b:b0:
        7d:74:7f:0e:80:f9:2f:93:fe:d6:eb:b0:8c:c1:9c:4f:af:19:
        5a:8f:2f:96:6a:eb:ca:88:aa:44:41:88:e1:f4:18:f8:1b:1c:
        f5:06:44:d0:90:46:55:da:9b:d7:77:0b:a6:b0:b6:bd:d6:1d:
        c8:6e:f1:1a:0d:e2:fd:b4:78:0f:a5:d6:34:c9:fb:c9:07:6f:
        db:ba:ba:be:5b:cc:1f:ed:ad:4f:d8:05:4d:3e:7a:58:c7:07:
        1c:64:06:76:c3:ea:11:56:a1:65:40:9a:d4:2a:80:b5:d2:ca:
        2a:29:89:e9:6e:85:d7:7f:37:5c:aa:db:8b:b2:5a:e9:30:56:
        50:a3:43:48:a3:4a:0f:97:57:bf:57:5e:4f:8c:44:29:76:90:
        44:b9:77:c5:19:70:bb:0e:a5:54:2f:66:72:1d:92:27:46:6a:
        62:71:4a:74:1e:f9:8e:77:6d:c3:14:19:5b:51:d4:b4:62:22:
        4b:7d:8d:f3:8d:8d:be:ff:48:fc:8a:07:05:6b:38:c8:d5:fe:
        21:f0:95:27:a9:4f:ce:75:91:82:f9:fa:86:eb:6b:c5:13:69:
        d9:f9:84:04
-----BEGIN CERTIFICATE-----
MIIDYzCCAkugAwIBAgIBGzANBgkqhkiG9w0BAQsFADAWMRQwEgYDVQQDDAtFYXN5
LVJTQSBDQTAeFw0xNzA0MTcxMjM1NDVaFw0yNzA0MTUxMjM1NDVaMBwxGjAYBgNV
BAMMEXJ3Yy1zZXJ2ZXItY2VudG9zMIIBIjANBgkqhkiG9w0BAQEFAAOCAQ8AMIIB
CgKCAQEAu086sRiSNl/dVlQz37EJDQQ6gt4iStRiV1NQmY2QzsM2hN3CNiECat31
1zcEgwIg3RhhKQQNphG3ruNJWB0TPxB9YVHw927cVY+KP7Kzt3nvi/J8+e6LW5Y7
jI/8EK6TnRMVdduMeZ7EvMcBp1ugd0Xw/B0K/9/q4/LMQXEIxG2Mx3XIzQtUKOhZ
8p78VqDSn6CbM+p9uJASWEV+2+qRqo/3IJP/a5lFoarO3vRm8D9t2zZI+NBa/+yu
qmhEDJrZPb7YtnhP4fyHeCii9/Xp4diQjgKHp6ZVu4iiYxUGHK8E5RPLLkE/kg1Q
J44WXSb0aHI4NmN4og+SkZx7xIT4dwIDAQABo4G1MIGyMAkGA1UdEwQCMAAwHQYD
VR0OBBYEFASSzQDF4MCCQjuC8obmc1JSeLBcMEYGA1UdIwQ/MD2AFNCd4/5EIq6j
lOp8H/Lv4f+mU5nwoRqkGDAWMRQwEgYDVQQDDAtFYXN5LVJTQSBDQYIJALMcAQSC
7PLhMBMGA1UdJQQMMAoGCCsGAQUFBwMBMAsGA1UdDwQEAwIFoDAcBgNVHREEFTAT
ghFyd2Mtc2VydmVyLWNlbnRvczANBgkqhkiG9w0BAQsFAAOCAQEAVAESxFmTdn7c
Ndvqjr2HZhhlD2VefRDb6Srx9AFd2QjOIQuwfXR/DoD5L5P+1uuwjMGcT68ZWo8v
lmrryoiqREGI4fQY+Bsc9QZE0JBGVdqb13cLprC2vdYdyG7xGg3i/bR4D6XWNMn7
yQdv27q6vlvMH+2tT9gFTT56WMcHHGQGdsPqEVahZUCa1CqAtdLKKimJ6W6F1383
XKrbi7Ja6TBWUKNDSKNKD5dXv1deT4xEKXaQRLl3xRlwuw6lVC9mch2SJ0ZqYnFK
dB75jndtwxQZW1HUtGIiS32N842Nvv9I/IoHBWs4yNX+IfCVJ6lPznWRgvn6hutr
xRNp2fmEBA==
-----END CERTIFICATE-----

