Certificate:
    Data:
        Version: 3 (0x2)
        Serial Number: 12 (0xc)
        Signature Algorithm: sha256WithRSAEncryption
        Issuer: CN=vpndev.angsoln.net
        Validity
            Not Before: Oct 14 06:58:16 2016 GMT
            Not After : Oct 12 06:58:16 2026 GMT
        Subject: CN=rwc-centos
        Subject Public Key Info:
            Public Key Algorithm: rsaEncryption
            RSA Public Key: (2048 bit)
                Modulus (2048 bit):
                    00:c6:5c:0b:76:51:30:1b:b6:6c:0d:78:7a:fb:3d:
                    61:87:14:a3:43:2b:e5:31:23:3f:11:c8:b2:7c:c7:
                    b6:24:ac:3d:59:4e:0a:74:f3:58:db:2e:03:9a:a0:
                    1e:14:b2:93:08:ad:8e:25:49:fc:b5:61:d7:f0:4a:
                    fd:bd:cc:c8:cc:0e:52:4e:6e:a3:24:59:27:43:3c:
                    bb:ca:f8:78:96:2a:31:f8:be:16:14:06:f8:ff:57:
                    48:6f:bd:1f:83:0c:8b:28:44:82:23:cc:65:78:4f:
                    d7:41:18:14:35:f9:c1:37:cc:de:28:b0:60:22:00:
                    90:a7:3d:85:69:b7:a4:29:d2:22:97:a0:3e:1e:df:
                    45:75:8d:86:64:2f:6b:6a:d3:39:1b:27:87:72:27:
                    b2:b8:69:b5:ec:00:b8:53:51:9e:de:56:f2:39:a3:
                    7c:30:05:15:2a:34:16:25:ea:b1:27:39:d8:f8:18:
                    c7:fb:7f:0b:ee:27:af:f6:e9:d5:39:fe:55:b6:21:
                    5c:d2:f7:bd:ed:a6:e6:a7:cb:45:d5:93:08:7a:5e:
                    ce:64:a2:a7:23:23:08:8c:86:30:4b:4c:74:e1:25:
                    ef:58:e7:82:96:bc:81:7c:03:1e:ea:9e:09:5c:e0:
                    50:5d:23:fc:be:91:93:a4:5b:e2:a9:bc:59:9e:68:
                    65:67
                Exponent: 65537 (0x10001)
        X509v3 extensions:
            X509v3 Basic Constraints: 
                CA:FALSE
            X509v3 Subject Key Identifier: 
                7E:9C:EE:10:A4:7C:1C:5E:30:DB:07:51:7E:81:39:AE:24:44:99:A2
            X509v3 Authority Key Identifier: 
                keyid:66:D9:73:06:35:84:F2:03:30:35:43:7E:63:FD:18:7E:9E:22:84:3C
                DirName:/CN=vpndev.angsoln.net
                serial:94:04:8B:0B:67:E5:8B:02

            X509v3 Extended Key Usage: 
                TLS Web Client Authentication
            X509v3 Key Usage: 
                Digital Signature
    Signature Algorithm: sha256WithRSAEncryption
        9d:b8:d0:53:3e:6a:37:8f:33:49:f9:9b:76:a6:26:08:b1:d6:
        e4:31:42:9f:56:a4:04:7d:df:0c:ae:7e:49:79:65:27:f1:a0:
        41:f0:f2:d6:a4:7b:28:ed:65:7e:79:33:2d:97:8e:c6:ef:f6:
        be:87:e3:54:56:03:6a:fa:1c:61:0b:73:31:d8:6f:65:69:12:
        54:45:b9:00:e1:6c:2b:66:69:76:a6:af:1e:f9:a3:2f:f9:ee:
        39:ed:aa:25:88:3f:b8:3e:77:8c:d8:8a:06:70:40:e6:72:46:
        37:27:e2:28:05:3f:08:fc:dd:ba:21:19:b7:35:ae:12:a5:bb:
        04:f1:aa:fd:bd:37:5e:a6:57:95:ae:ae:30:d7:ab:ee:9f:a1:
        7d:0c:5d:e8:74:f4:66:41:da:07:dd:f9:bb:a2:a8:6b:07:37:
        ba:17:e8:da:2f:98:02:d0:58:9f:ea:62:23:5f:f0:f4:81:03:
        81:cc:06:32:bc:f1:a3:8e:e3:2a:21:10:d9:27:87:9c:11:91:
        a8:64:32:cb:be:2e:09:da:b1:18:4d:b6:e0:24:c2:c2:b6:ba:
        e8:8c:bd:d1:8a:8a:e5:02:06:85:cf:7d:60:51:81:bd:3c:db:
        e7:4a:2d:80:c3:fe:f2:f3:34:bf:82:68:0b:fb:03:92:f1:ef:
        0d:57:a5:80
-----BEGIN CERTIFICATE-----
MIIDTDCCAjSgAwIBAgIBDDANBgkqhkiG9w0BAQsFADAdMRswGQYDVQQDExJ2cG5k
ZXYuYW5nc29sbi5uZXQwHhcNMTYxMDE0MDY1ODE2WhcNMjYxMDEyMDY1ODE2WjAV
MRMwEQYDVQQDDApyd2MtY2VudG9zMIIBIjANBgkqhkiG9w0BAQEFAAOCAQ8AMIIB
CgKCAQEAxlwLdlEwG7ZsDXh6+z1hhxSjQyvlMSM/EciyfMe2JKw9WU4KdPNY2y4D
mqAeFLKTCK2OJUn8tWHX8Er9vczIzA5STm6jJFknQzy7yvh4liox+L4WFAb4/1dI
b70fgwyLKESCI8xleE/XQRgUNfnBN8zeKLBgIgCQpz2FabekKdIil6A+Ht9FdY2G
ZC9ratM5GyeHcieyuGm17AC4U1Ge3lbyOaN8MAUVKjQWJeqxJznY+BjH+38L7iev
9unVOf5VtiFc0ve97abmp8tF1ZMIel7OZKKnIyMIjIYwS0x04SXvWOeClryBfAMe
6p4JXOBQXSP8vpGTpFviqbxZnmhlZwIDAQABo4GeMIGbMAkGA1UdEwQCMAAwHQYD
VR0OBBYEFH6c7hCkfBxeMNsHUX6BOa4kRJmiME0GA1UdIwRGMESAFGbZcwY1hPID
MDVDfmP9GH6eIoQ8oSGkHzAdMRswGQYDVQQDExJ2cG5kZXYuYW5nc29sbi5uZXSC
CQCUBIsLZ+WLAjATBgNVHSUEDDAKBggrBgEFBQcDAjALBgNVHQ8EBAMCB4AwDQYJ
KoZIhvcNAQELBQADggEBAJ240FM+ajePM0n5m3amJgix1uQxQp9WpAR93wyufkl5
ZSfxoEHw8takeyjtZX55My2Xjsbv9r6H41RWA2r6HGELczHYb2VpElRFuQDhbCtm
aXamrx75oy/57jntqiWIP7g+d4zYigZwQOZyRjcn4igFPwj83bohGbc1rhKluwTx
qv29N16mV5WurjDXq+6foX0MXeh09GZB2gfd+buiqGsHN7oX6NovmALQWJ/qYiNf
8PSBA4HMBjK88aOO4yohENknh5wRkahkMsu+LgnasRhNtuAkwsK2uuiMvdGKiuUC
BoXPfWBRgb082+dKLYDD/vLzNL+CaAv7A5Lx7w1XpYA=
-----END CERTIFICATE-----

